; Function Attrs: mustprogress uwtable
define void @_ZN3net12HpackEncoder15EncodeHeaderSetERKSt6vectorISt4pairIN4base16BasicStringPieceINSt7__cxx1112basic_stringIcSt11char_traitsIcESaIcEEEEESB_ESaISC_EEPSA_(ptr noundef nonnull align 8 dereferenceable(346) %0, ptr noundef nonnull readonly align 8 captures(none) dereferenceable(24) %1, ptr noundef %2) local_unnamed_addr #0 align 2 {
  %4 = alloca %"class.net::HpackEncoder::RepresentationIterator", align 8
  call void @llvm.lifetime.start.p0(i64 32, ptr nonnull %4) #15
  %5 = load ptr, ptr %1, align 8, !tbaa !54
  store ptr %5, ptr %4, align 8
  %6 = getelementptr inbounds nuw i8, ptr %4, i64 8
  %7 = getelementptr inbounds nuw i8, ptr %1, i64 8
  %8 = load ptr, ptr %7, align 8, !tbaa !54
  store ptr %8, ptr %6, align 8
  %9 = getelementptr inbounds nuw i8, ptr %4, i64 16
  store ptr %8, ptr %9, align 8
  %10 = getelementptr inbounds nuw i8, ptr %4, i64 24
  store ptr %8, ptr %10, align 8
  call void @_ZN3net12HpackEncoder21EncodeRepresentationsEPNS0_22RepresentationIteratorEPNSt7__cxx1112basic_stringIcSt11char_traitsIcESaIcEEE(ptr noundef nonnull align 8 dereferenceable(346) %0, ptr noundef nonnull %4, ptr noundef %2)
  call void @llvm.lifetime.end.p0(i64 32, ptr nonnull %4) #15
  ret void
}